                              1 ;--------------------------------------------------------
                              2 ; File Created by SDCC : free open source ANSI-C Compiler
                              3 ; Version 3.6.8 #9946 (Linux)
                              4 ;--------------------------------------------------------
                              5 	.module text
                              6 	.optsdcc -mz80
                              7 	
                              8 ;--------------------------------------------------------
                              9 ; Public variables in this module
                             10 ;--------------------------------------------------------
                             11 	.globl _cpct_getScreenPtr
                             12 	.globl _cpct_drawSprite
                             13 	.globl _swapColors
                             14 	.globl _strLength
                             15 	.globl _strCopy
                             16 	.globl _strCmp
                             17 	.globl _drawTextM1
                             18 	.globl _drawText
                             19 ;--------------------------------------------------------
                             20 ; special function registers
                             21 ;--------------------------------------------------------
                             22 ;--------------------------------------------------------
                             23 ; ram data
                             24 ;--------------------------------------------------------
                             25 	.area _DATA
                             26 ;--------------------------------------------------------
                             27 ; ram data
                             28 ;--------------------------------------------------------
                             29 	.area _INITIALIZED
                             30 ;--------------------------------------------------------
                             31 ; absolute external ram data
                             32 ;--------------------------------------------------------
                             33 	.area _DABS (ABS)
                             34 ;--------------------------------------------------------
                             35 ; global & static initialisations
                             36 ;--------------------------------------------------------
                             37 	.area _HOME
                             38 	.area _GSINIT
                             39 	.area _GSFINAL
                             40 	.area _GSINIT
                             41 ;--------------------------------------------------------
                             42 ; Home
                             43 ;--------------------------------------------------------
                             44 	.area _HOME
                             45 	.area _HOME
                             46 ;--------------------------------------------------------
                             47 ; code
                             48 ;--------------------------------------------------------
                             49 	.area _CODE
                             50 ;src/text/text.c:53: u8 strLength(u8 str[])
                             51 ;	---------------------------------
                             52 ; Function strLength
                             53 ; ---------------------------------
   0000                      54 _strLength::
                             55 ;src/text/text.c:58: while (str[result] != '\0')
   0000 0E 00         [ 7]   56 	ld	c, #0x00
   0002                      57 00101$:
   0002 21 02 00      [10]   58 	ld	hl, #2
   0005 39            [11]   59 	add	hl, sp
   0006 7E            [ 7]   60 	ld	a, (hl)
   0007 23            [ 6]   61 	inc	hl
   0008 66            [ 7]   62 	ld	h, (hl)
   0009 6F            [ 4]   63 	ld	l, a
   000A 06 00         [ 7]   64 	ld	b, #0x00
   000C 09            [11]   65 	add	hl, bc
   000D 7E            [ 7]   66 	ld	a, (hl)
   000E B7            [ 4]   67 	or	a, a
   000F 28 03         [12]   68 	jr	Z,00103$
                             69 ;src/text/text.c:60: result++;
   0011 0C            [ 4]   70 	inc	c
   0012 18 EE         [12]   71 	jr	00101$
   0014                      72 00103$:
                             73 ;src/text/text.c:62: return result;
   0014 69            [ 4]   74 	ld	l, c
   0015 C9            [10]   75 	ret
   0016                      76 _swapColors:
   0016 55                   77 	.db #0x55	; 85	'U'
   0017 EE                   78 	.db #0xee	; 238
   0018 DD                   79 	.db #0xdd	; 221
   0019 FF                   80 	.db #0xff	; 255
   001A 14                   81 	.db #0x14	; 20
   001B 6C                   82 	.db #0x6c	; 108	'l'
   001C 9C                   83 	.db #0x9c	; 156
   001D 3C                   84 	.db #0x3c	; 60
   001E 50                   85 	.db #0x50	; 80	'P'
   001F E4                   86 	.db #0xe4	; 228
   0020 D8                   87 	.db #0xd8	; 216
   0021 F0                   88 	.db #0xf0	; 240
   0022 11                   89 	.db #0x11	; 17
   0023 66                   90 	.db #0x66	; 102	'f'
   0024 99                   91 	.db #0x99	; 153
   0025 33                   92 	.db #0x33	; 51	'3'
   0026 10                   93 	.db #0x10	; 16
   0027 35                   94 	.db #0x35	; 53	'5'
   0028 3A                   95 	.db #0x3a	; 58
   0029 30                   96 	.db #0x30	; 48	'0'
   002A 45                   97 	.db #0x45	; 69	'E'
   002B CE                   98 	.db #0xce	; 206
   002C CD                   99 	.db #0xcd	; 205
   002D CF                  100 	.db #0xcf	; 207
                            101 ;src/text/text.c:75: void strCopy(u8 source[], u8 dest[])
                            102 ;	---------------------------------
                            103 ; Function strCopy
                            104 ; ---------------------------------
   002E                     105 _strCopy::
   002E DD E5         [15]  106 	push	ix
   0030 DD 21 00 00   [14]  107 	ld	ix,#0
   0034 DD 39         [15]  108 	add	ix,sp
                            109 ;src/text/text.c:78: while ((dest[i] = source[i]) != '\0')
   0036 0E 00         [ 7]  110 	ld	c, #0x00
   0038                     111 00101$:
   0038 DD 7E 06      [19]  112 	ld	a, 6 (ix)
   003B 81            [ 4]  113 	add	a, c
   003C 5F            [ 4]  114 	ld	e, a
   003D DD 7E 07      [19]  115 	ld	a, 7 (ix)
   0040 CE 00         [ 7]  116 	adc	a, #0x00
   0042 57            [ 4]  117 	ld	d, a
   0043 DD 6E 04      [19]  118 	ld	l,4 (ix)
   0046 DD 66 05      [19]  119 	ld	h,5 (ix)
   0049 06 00         [ 7]  120 	ld	b, #0x00
   004B 09            [11]  121 	add	hl, bc
   004C 7E            [ 7]  122 	ld	a, (hl)
   004D 12            [ 7]  123 	ld	(de), a
   004E B7            [ 4]  124 	or	a, a
   004F 28 03         [12]  125 	jr	Z,00104$
                            126 ;src/text/text.c:80: i++;
   0051 0C            [ 4]  127 	inc	c
   0052 18 E4         [12]  128 	jr	00101$
   0054                     129 00104$:
   0054 DD E1         [14]  130 	pop	ix
   0056 C9            [10]  131 	ret
                            132 ;src/text/text.c:94: u8 strCmp(u8 str1[], u8 str2[])
                            133 ;	---------------------------------
                            134 ; Function strCmp
                            135 ; ---------------------------------
   0057                     136 _strCmp::
                            137 ;src/text/text.c:99: while ((str1[i] == str2[i]) && ((str1[i] != '\0') && (str2[i] != '\0')))
   0057 0E 00         [ 7]  138 	ld	c, #0x00
   0059                     139 00103$:
   0059 21 02 00      [10]  140 	ld	hl, #2
   005C 39            [11]  141 	add	hl, sp
   005D 7E            [ 7]  142 	ld	a, (hl)
   005E 23            [ 6]  143 	inc	hl
   005F 66            [ 7]  144 	ld	h, (hl)
   0060 6F            [ 4]  145 	ld	l, a
   0061 06 00         [ 7]  146 	ld	b, #0x00
   0063 09            [11]  147 	add	hl, bc
   0064 46            [ 7]  148 	ld	b, (hl)
   0065 FD 21 04 00   [14]  149 	ld	iy, #4
   0069 FD 39         [15]  150 	add	iy, sp
   006B FD 7E 00      [19]  151 	ld	a, 0 (iy)
   006E 81            [ 4]  152 	add	a, c
   006F 5F            [ 4]  153 	ld	e, a
   0070 FD 7E 01      [19]  154 	ld	a, 1 (iy)
   0073 CE 00         [ 7]  155 	adc	a, #0x00
   0075 57            [ 4]  156 	ld	d, a
   0076 1A            [ 7]  157 	ld	a, (de)
   0077 57            [ 4]  158 	ld	d, a
   0078 78            [ 4]  159 	ld	a, b
   0079 92            [ 4]  160 	sub	a, d
   007A 20 04         [12]  161 	jr	NZ,00132$
   007C 3E 01         [ 7]  162 	ld	a,#0x01
   007E 18 01         [12]  163 	jr	00133$
   0080                     164 00132$:
   0080 AF            [ 4]  165 	xor	a,a
   0081                     166 00133$:
   0081 5F            [ 4]  167 	ld	e,a
   0082 B7            [ 4]  168 	or	a, a
   0083 28 0B         [12]  169 	jr	Z,00105$
   0085 78            [ 4]  170 	ld	a, b
   0086 B7            [ 4]  171 	or	a, a
   0087 28 07         [12]  172 	jr	Z,00105$
   0089 7A            [ 4]  173 	ld	a, d
   008A B7            [ 4]  174 	or	a, a
   008B 28 03         [12]  175 	jr	Z,00105$
                            176 ;src/text/text.c:101: i++;
   008D 0C            [ 4]  177 	inc	c
   008E 18 C9         [12]  178 	jr	00103$
   0090                     179 00105$:
                            180 ;src/text/text.c:103: if (str1[i] == str2[i])
   0090 7B            [ 4]  181 	ld	a, e
   0091 B7            [ 4]  182 	or	a, a
   0092 28 03         [12]  183 	jr	Z,00107$
                            184 ;src/text/text.c:105: return YES;
   0094 2E 01         [ 7]  185 	ld	l, #0x01
   0096 C9            [10]  186 	ret
   0097                     187 00107$:
                            188 ;src/text/text.c:109: return NO;
   0097 2E 00         [ 7]  189 	ld	l, #0x00
   0099 C9            [10]  190 	ret
                            191 ;src/text/text.c:125: void drawTextM1(u8 *text, u8 xPos, u8 yPos, u8 size)
                            192 ;	---------------------------------
                            193 ; Function drawTextM1
                            194 ; ---------------------------------
   009A                     195 _drawTextM1::
   009A DD E5         [15]  196 	push	ix
   009C DD 21 00 00   [14]  197 	ld	ix,#0
   00A0 DD 39         [15]  198 	add	ix,sp
   00A2 21 CC FF      [10]  199 	ld	hl, #-52
   00A5 39            [11]  200 	add	hl, sp
   00A6 F9            [ 6]  201 	ld	sp, hl
                            202 ;src/text/text.c:140: character = text[x];
   00A7 DD 7E 04      [19]  203 	ld	a, 4 (ix)
   00AA DD 77 FE      [19]  204 	ld	-2 (ix), a
   00AD DD 7E 05      [19]  205 	ld	a, 5 (ix)
   00B0 DD 77 FF      [19]  206 	ld	-1 (ix), a
   00B3 DD 6E FE      [19]  207 	ld	l,-2 (ix)
   00B6 DD 66 FF      [19]  208 	ld	h,-1 (ix)
   00B9 7E            [ 7]  209 	ld	a, (hl)
   00BA DD 77 FA      [19]  210 	ld	-6 (ix), a
                            211 ;src/text/text.c:142: while (character != '\0')
   00BD 21 03 00      [10]  212 	ld	hl, #0x0003
   00C0 39            [11]  213 	add	hl, sp
   00C1 DD 75 FC      [19]  214 	ld	-4 (ix), l
   00C4 DD 74 FD      [19]  215 	ld	-3 (ix), h
   00C7 DD 7E FC      [19]  216 	ld	a, -4 (ix)
   00CA DD 77 F4      [19]  217 	ld	-12 (ix), a
   00CD DD 7E FD      [19]  218 	ld	a, -3 (ix)
   00D0 DD 77 F5      [19]  219 	ld	-11 (ix), a
   00D3 DD 7E 08      [19]  220 	ld	a, 8 (ix)
   00D6 3D            [ 4]  221 	dec	a
   00D7 20 04         [12]  222 	jr	NZ,00246$
   00D9 3E 01         [ 7]  223 	ld	a,#0x01
   00DB 18 01         [12]  224 	jr	00247$
   00DD                     225 00246$:
   00DD AF            [ 4]  226 	xor	a,a
   00DE                     227 00247$:
   00DE DD 77 FB      [19]  228 	ld	-5 (ix), a
   00E1 DD 7E 08      [19]  229 	ld	a, 8 (ix)
   00E4 4F            [ 4]  230 	ld	c, a
   00E5 87            [ 4]  231 	add	a, a
   00E6 87            [ 4]  232 	add	a, a
   00E7 87            [ 4]  233 	add	a, a
   00E8 81            [ 4]  234 	add	a, c
   00E9 DD 77 F9      [19]  235 	ld	-7 (ix), a
   00EC DD 7E FC      [19]  236 	ld	a, -4 (ix)
   00EF DD 77 F7      [19]  237 	ld	-9 (ix), a
   00F2 DD 7E FD      [19]  238 	ld	a, -3 (ix)
   00F5 DD 77 F8      [19]  239 	ld	-8 (ix), a
   00F8 DD 36 F3 00   [19]  240 	ld	-13 (ix), #0x00
   00FC                     241 00133$:
   00FC DD 7E FA      [19]  242 	ld	a, -6 (ix)
   00FF B7            [ 4]  243 	or	a, a
   0100 CArA1r02      [10]  244 	jp	Z, 00138$
                            245 ;src/text/text.c:145: if ((character == 33) ||                        // !
   0103 DD 7E FA      [19]  246 	ld	a, -6 (ix)
   0106 D6 21         [ 7]  247 	sub	a, #0x21
   0108 20 04         [12]  248 	jr	NZ,00248$
   010A 3E 01         [ 7]  249 	ld	a,#0x01
   010C 18 01         [12]  250 	jr	00249$
   010E                     251 00248$:
   010E AF            [ 4]  252 	xor	a,a
   010F                     253 00249$:
   010F 4F            [ 4]  254 	ld	c,a
   0110 B7            [ 4]  255 	or	a, a
   0111 20 2C         [12]  256 	jr	NZ,00125$
                            257 ;src/text/text.c:146: ((character > 43) && (character < 47)) ||   // ,-.
   0113 3E 2B         [ 7]  258 	ld	a, #0x2b
   0115 DD 96 FA      [19]  259 	sub	a, -6 (ix)
   0118 30 07         [12]  260 	jr	NC,00130$
   011A DD 7E FA      [19]  261 	ld	a, -6 (ix)
   011D D6 2F         [ 7]  262 	sub	a, #0x2f
   011F 38 1E         [12]  263 	jr	C,00125$
   0121                     264 00130$:
                            265 ;src/text/text.c:147: ((character > 47) && (character < 59)) ||   // 0123456789:
   0121 3E 2F         [ 7]  266 	ld	a, #0x2f
   0123 DD 96 FA      [19]  267 	sub	a, -6 (ix)
   0126 30 07         [12]  268 	jr	NC,00132$
   0128 DD 7E FA      [19]  269 	ld	a, -6 (ix)
   012B D6 3B         [ 7]  270 	sub	a, #0x3b
   012D 38 10         [12]  271 	jr	C,00125$
   012F                     272 00132$:
                            273 ;src/text/text.c:148: ((character > 62) && (character < 91)))     // ABCDEFGHIJKLMNOPQRSTUVWXYZ
   012F 3E 3E         [ 7]  274 	ld	a, #0x3e
   0131 DD 96 FA      [19]  275 	sub	a, -6 (ix)
   0134 D2r87r02      [10]  276 	jp	NC, 00126$
   0137 DD 7E FA      [19]  277 	ld	a, -6 (ix)
   013A D6 5B         [ 7]  278 	sub	a, #0x5b
   013C D2r87r02      [10]  279 	jp	NC, 00126$
   013F                     280 00125$:
                            281 ;src/text/text.c:152: switch (character)
   013F 79            [ 4]  282 	ld	a, c
   0140 B7            [ 4]  283 	or	a, a
   0141 20 64         [12]  284 	jr	NZ,00101$
   0143 DD 7E FA      [19]  285 	ld	a, -6 (ix)
   0146 D6 2C         [ 7]  286 	sub	a, #0x2c
   0148 28 63         [12]  287 	jr	Z,00104$
   014A DD 7E FA      [19]  288 	ld	a, -6 (ix)
   014D D6 2D         [ 7]  289 	sub	a, #0x2d
   014F 28 5C         [12]  290 	jr	Z,00104$
   0151 DD 7E FA      [19]  291 	ld	a, -6 (ix)
   0154 D6 2E         [ 7]  292 	sub	a, #0x2e
   0156 28 55         [12]  293 	jr	Z,00104$
   0158 DD 7E FA      [19]  294 	ld	a, -6 (ix)
   015B D6 30         [ 7]  295 	sub	a, #0x30
   015D 28 58         [12]  296 	jr	Z,00115$
   015F DD 7E FA      [19]  297 	ld	a, -6 (ix)
   0162 D6 31         [ 7]  298 	sub	a, #0x31
   0164 28 51         [12]  299 	jr	Z,00115$
   0166 DD 7E FA      [19]  300 	ld	a, -6 (ix)
   0169 D6 32         [ 7]  301 	sub	a, #0x32
   016B 28 4A         [12]  302 	jr	Z,00115$
   016D DD 7E FA      [19]  303 	ld	a, -6 (ix)
   0170 D6 33         [ 7]  304 	sub	a, #0x33
   0172 28 43         [12]  305 	jr	Z,00115$
   0174 DD 7E FA      [19]  306 	ld	a, -6 (ix)
   0177 D6 34         [ 7]  307 	sub	a, #0x34
   0179 28 3C         [12]  308 	jr	Z,00115$
   017B DD 7E FA      [19]  309 	ld	a, -6 (ix)
   017E D6 35         [ 7]  310 	sub	a, #0x35
   0180 28 35         [12]  311 	jr	Z,00115$
   0182 DD 7E FA      [19]  312 	ld	a, -6 (ix)
   0185 D6 36         [ 7]  313 	sub	a, #0x36
   0187 28 2E         [12]  314 	jr	Z,00115$
   0189 DD 7E FA      [19]  315 	ld	a, -6 (ix)
   018C D6 37         [ 7]  316 	sub	a, #0x37
   018E 28 27         [12]  317 	jr	Z,00115$
   0190 DD 7E FA      [19]  318 	ld	a, -6 (ix)
   0193 D6 38         [ 7]  319 	sub	a, #0x38
   0195 28 20         [12]  320 	jr	Z,00115$
   0197 DD 7E FA      [19]  321 	ld	a, -6 (ix)
   019A D6 39         [ 7]  322 	sub	a, #0x39
   019C 28 19         [12]  323 	jr	Z,00115$
   019E DD 7E FA      [19]  324 	ld	a, -6 (ix)
   01A1 D6 3A         [ 7]  325 	sub	a, #0x3a
   01A3 28 12         [12]  326 	jr	Z,00115$
   01A5 18 1C         [12]  327 	jr	00116$
                            328 ;src/text/text.c:155: case 33:
   01A7                     329 00101$:
                            330 ;src/text/text.c:156: character = 48;
   01A7 DD 36 FA 30   [19]  331 	ld	-6 (ix), #0x30
                            332 ;src/text/text.c:157: break;
   01AB 18 16         [12]  333 	jr	00116$
                            334 ;src/text/text.c:162: case 46:
   01AD                     335 00104$:
                            336 ;src/text/text.c:163: character += 5;
   01AD DD 7E FA      [19]  337 	ld	a, -6 (ix)
   01B0 C6 05         [ 7]  338 	add	a, #0x05
   01B2 DD 77 FA      [19]  339 	ld	-6 (ix), a
                            340 ;src/text/text.c:164: break;
   01B5 18 0C         [12]  341 	jr	00116$
                            342 ;src/text/text.c:177: case 58:
   01B7                     343 00115$:
                            344 ;src/text/text.c:178: character += 4;
   01B7 DD 34 FA      [23]  345 	inc	-6 (ix)
   01BA DD 34 FA      [23]  346 	inc	-6 (ix)
   01BD DD 34 FA      [23]  347 	inc	-6 (ix)
   01C0 DD 34 FA      [23]  348 	inc	-6 (ix)
                            349 ;src/text/text.c:180: }
   01C3                     350 00116$:
                            351 ;src/text/text.c:183: character -= 48;
   01C3 DD 7E FA      [19]  352 	ld	a, -6 (ix)
   01C6 C6 D0         [ 7]  353 	add	a, #0xd0
   01C8 4F            [ 4]  354 	ld	c, a
                            355 ;src/text/text.c:186: for (i = 0; i < 9; i++)
   01C9 06 00         [ 7]  356 	ld	b,#0x00
   01CB 69            [ 4]  357 	ld	l, c
   01CC 60            [ 4]  358 	ld	h, b
   01CD 29            [11]  359 	add	hl, hl
   01CE 29            [11]  360 	add	hl, hl
   01CF 29            [11]  361 	add	hl, hl
   01D0 09            [11]  362 	add	hl, bc
   01D1 45            [ 4]  363 	ld	b, l
   01D2 54            [ 4]  364 	ld	d, h
   01D3 1E 00         [ 7]  365 	ld	e, #0x00
   01D5                     366 00136$:
                            367 ;src/text/text.c:188: pChar = (u8 *)s_fonts_1 + (character * 9) + i;
   01D5 3Er00         [ 7]  368 	ld	a, #<(_s_fonts_1)
   01D7 80            [ 4]  369 	add	a, b
   01D8 6F            [ 4]  370 	ld	l, a
   01D9 3Es00         [ 7]  371 	ld	a, #>(_s_fonts_1)
   01DB 8A            [ 4]  372 	adc	a, d
   01DC 67            [ 4]  373 	ld	h, a
   01DD 7D            [ 4]  374 	ld	a, l
   01DE 83            [ 4]  375 	add	a, e
   01DF 6F            [ 4]  376 	ld	l, a
   01E0 7C            [ 4]  377 	ld	a, h
   01E1 CE 00         [ 7]  378 	adc	a, #0x00
   01E3 67            [ 4]  379 	ld	h, a
   01E4 33            [ 6]  380 	inc	sp
   01E5 33            [ 6]  381 	inc	sp
   01E6 E5            [11]  382 	push	hl
                            383 ;src/text/text.c:193: colorchar[i] = *pChar;
   01E7 E1            [10]  384 	pop	hl
   01E8 E5            [11]  385 	push	hl
   01E9 7E            [ 7]  386 	ld	a, (hl)
   01EA DD 77 F6      [19]  387 	ld	-10 (ix), a
                            388 ;src/text/text.c:190: if (size == 1)
   01ED DD 7E FB      [19]  389 	ld	a, -5 (ix)
   01F0 B7            [ 4]  390 	or	a, a
   01F1 28 11         [12]  391 	jr	Z,00118$
                            392 ;src/text/text.c:193: colorchar[i] = *pChar;
   01F3 DD 7E F4      [19]  393 	ld	a, -12 (ix)
   01F6 83            [ 4]  394 	add	a, e
   01F7 6F            [ 4]  395 	ld	l, a
   01F8 DD 7E F5      [19]  396 	ld	a, -11 (ix)
   01FB CE 00         [ 7]  397 	adc	a, #0x00
   01FD 67            [ 4]  398 	ld	h, a
   01FE DD 7E F6      [19]  399 	ld	a, -10 (ix)
   0201 77            [ 7]  400 	ld	(hl), a
   0202 18 46         [12]  401 	jr	00137$
   0204                     402 00118$:
                            403 ;src/text/text.c:198: pos = (i * size) - (i % FONT_1_W);
   0204 D5            [11]  404 	push	de
   0205 C5            [11]  405 	push	bc
   0206 DD 66 08      [19]  406 	ld	h, 8 (ix)
   0209 2E 00         [ 7]  407 	ld	l, #0x00
   020B 55            [ 4]  408 	ld	d, l
   020C 06 08         [ 7]  409 	ld	b, #0x08
   020E                     410 00264$:
   020E 29            [11]  411 	add	hl, hl
   020F 30 01         [12]  412 	jr	NC,00265$
   0211 19            [11]  413 	add	hl, de
   0212                     414 00265$:
   0212 10 FA         [13]  415 	djnz	00264$
   0214 C1            [10]  416 	pop	bc
   0215 D1            [10]  417 	pop	de
   0216 26 00         [ 7]  418 	ld	h, #0x00
   0218 7D            [ 4]  419 	ld	a, l
   0219 94            [ 4]  420 	sub	a, h
   021A DD 77 CE      [19]  421 	ld	-50 (ix), a
                            422 ;src/text/text.c:200: colorchar[pos] = *pChar;
   021D DD 7E FC      [19]  423 	ld	a, -4 (ix)
   0220 DD 86 CE      [19]  424 	add	a, -50 (ix)
   0223 6F            [ 4]  425 	ld	l, a
   0224 DD 7E FD      [19]  426 	ld	a, -3 (ix)
   0227 CE 00         [ 7]  427 	adc	a, #0x00
   0229 67            [ 4]  428 	ld	h, a
   022A DD 7E F6      [19]  429 	ld	a, -10 (ix)
   022D 77            [ 7]  430 	ld	(hl), a
                            431 ;src/text/text.c:201: colorchar[pos + FONT_1_W] = *pChar;
   022E DD 6E CE      [19]  432 	ld	l, -50 (ix)
   0231 2C            [ 4]  433 	inc	l
   0232 E5            [11]  434 	push	hl
   0233 DD 6E FC      [19]  435 	ld	l, -4 (ix)
   0236 DD 66 FD      [19]  436 	ld	h, -3 (ix)
   0239 E5            [11]  437 	push	hl
   023A FD E1         [14]  438 	pop	iy
   023C E1            [10]  439 	pop	hl
   023D C5            [11]  440 	push	bc
   023E 4D            [ 4]  441 	ld	c,l
   023F 06 00         [ 7]  442 	ld	b,#0x00
   0241 FD 09         [15]  443 	add	iy, bc
   0243 C1            [10]  444 	pop	bc
   0244 E1            [10]  445 	pop	hl
   0245 E5            [11]  446 	push	hl
   0246 6E            [ 7]  447 	ld	l, (hl)
   0247 FD 75 00      [19]  448 	ld	0 (iy), l
   024A                     449 00137$:
                            450 ;src/text/text.c:186: for (i = 0; i < 9; i++)
   024A 1C            [ 4]  451 	inc	e
   024B 7B            [ 4]  452 	ld	a, e
   024C D6 09         [ 7]  453 	sub	a, #0x09
   024E 38 85         [12]  454 	jr	C,00136$
                            455 ;src/text/text.c:205: pvideo = cpct_getScreenPtr((u8*)VM_START, xPos, yPos);
   0250 C5            [11]  456 	push	bc
   0251 DD 66 07      [19]  457 	ld	h, 7 (ix)
   0254 DD 6E 06      [19]  458 	ld	l, 6 (ix)
   0257 E5            [11]  459 	push	hl
   0258 21 00 80      [10]  460 	ld	hl, #0x8000
   025B E5            [11]  461 	push	hl
   025C CDr00r00      [17]  462 	call	_cpct_getScreenPtr
   025F C1            [10]  463 	pop	bc
                            464 ;src/text/text.c:209: cpct_drawSprite(colorchar, pvideo, FONT_1_W, FONT_H * size);
   0260 E5            [11]  465 	push	hl
   0261 FD E1         [14]  466 	pop	iy
   0263 DD 5E F7      [19]  467 	ld	e,-9 (ix)
   0266 DD 56 F8      [19]  468 	ld	d,-8 (ix)
   0269 C5            [11]  469 	push	bc
   026A DD 46 F9      [19]  470 	ld	b, -7 (ix)
   026D 0E 01         [ 7]  471 	ld	c,#0x01
   026F C5            [11]  472 	push	bc
   0270 FD E5         [15]  473 	push	iy
   0272 D5            [11]  474 	push	de
   0273 CDr00r00      [17]  475 	call	_cpct_drawSprite
   0276 C1            [10]  476 	pop	bc
                            477 ;src/text/text.c:212: if (character == 48 || character == 60 || character == 57)
   0277 79            [ 4]  478 	ld	a,c
   0278 FE 30         [ 7]  479 	cp	a,#0x30
   027A 28 08         [12]  480 	jr	Z,00121$
   027C FE 3C         [ 7]  481 	cp	a,#0x3c
   027E 28 04         [12]  482 	jr	Z,00121$
   0280 D6 39         [ 7]  483 	sub	a, #0x39
   0282 20 03         [12]  484 	jr	NZ,00126$
   0284                     485 00121$:
                            486 ;src/text/text.c:213: xPos--;
   0284 DD 35 06      [23]  487 	dec	6 (ix)
   0287                     488 00126$:
                            489 ;src/text/text.c:215: character = text[++x];
   0287 DD 34 F3      [23]  490 	inc	-13 (ix)
   028A DD 7E FE      [19]  491 	ld	a, -2 (ix)
   028D DD 86 F3      [19]  492 	add	a, -13 (ix)
   0290 6F            [ 4]  493 	ld	l, a
   0291 DD 7E FF      [19]  494 	ld	a, -1 (ix)
   0294 CE 00         [ 7]  495 	adc	a, #0x00
   0296 67            [ 4]  496 	ld	h, a
   0297 7E            [ 7]  497 	ld	a, (hl)
   0298 DD 77 FA      [19]  498 	ld	-6 (ix), a
                            499 ;src/text/text.c:216: xPos += FONT_1_W;
   029B DD 34 06      [23]  500 	inc	6 (ix)
   029E C3rFCr00      [10]  501 	jp	00133$
   02A1                     502 00138$:
   02A1 DD F9         [10]  503 	ld	sp, ix
   02A3 DD E1         [14]  504 	pop	ix
   02A5 C9            [10]  505 	ret
                            506 ;src/text/text.c:232: void drawText(u8 *text, u8 xPos, u8 yPos, u8 color, u8 size)
                            507 ;	---------------------------------
                            508 ; Function drawText
                            509 ; ---------------------------------
   02A6                     510 _drawText::
   02A6 DD E5         [15]  511 	push	ix
   02A8 DD 21 00 00   [14]  512 	ld	ix,#0
   02AC DD 39         [15]  513 	add	ix,sp
   02AE 21 B2 FF      [10]  514 	ld	hl, #-78
   02B1 39            [11]  515 	add	hl, sp
   02B2 F9            [ 6]  516 	ld	sp, hl
                            517 ;src/text/text.c:245: color1 = swapColors[color][0];
   02B3 01r16r00      [10]  518 	ld	bc, #_swapColors+0
   02B6 DD 6E 08      [19]  519 	ld	l, 8 (ix)
   02B9 26 00         [ 7]  520 	ld	h, #0x00
   02BB 29            [11]  521 	add	hl, hl
   02BC 29            [11]  522 	add	hl, hl
   02BD 09            [11]  523 	add	hl, bc
   02BE E5            [11]  524 	push	hl
   02BF FD E1         [14]  525 	pop	iy
   02C1 FD 7E 00      [19]  526 	ld	a, 0 (iy)
   02C4 DD 77 B2      [19]  527 	ld	-78 (ix), a
                            528 ;src/text/text.c:246: color2 = swapColors[color][1];
   02C7 FD E5         [15]  529 	push	iy
   02C9 E1            [10]  530 	pop	hl
   02CA 23            [ 6]  531 	inc	hl
   02CB 7E            [ 7]  532 	ld	a, (hl)
   02CC DD 77 DC      [19]  533 	ld	-36 (ix), a
                            534 ;src/text/text.c:247: color3 = swapColors[color][2];
   02CF FD E5         [15]  535 	push	iy
   02D1 E1            [10]  536 	pop	hl
   02D2 23            [ 6]  537 	inc	hl
   02D3 23            [ 6]  538 	inc	hl
   02D4 7E            [ 7]  539 	ld	a, (hl)
   02D5 DD 77 DB      [19]  540 	ld	-37 (ix), a
                            541 ;src/text/text.c:248: color4 = swapColors[color][3];
   02D8 FD 7E 03      [19]  542 	ld	a, 3 (iy)
   02DB DD 77 DA      [19]  543 	ld	-38 (ix), a
                            544 ;src/text/text.c:253: character = text[x];
   02DE DD 7E 04      [19]  545 	ld	a, 4 (ix)
   02E1 DD 77 EA      [19]  546 	ld	-22 (ix), a
   02E4 DD 7E 05      [19]  547 	ld	a, 5 (ix)
   02E7 DD 77 EB      [19]  548 	ld	-21 (ix), a
   02EA DD 6E EA      [19]  549 	ld	l,-22 (ix)
   02ED DD 66 EB      [19]  550 	ld	h,-21 (ix)
   02F0 7E            [ 7]  551 	ld	a, (hl)
   02F1 DD 77 EE      [19]  552 	ld	-18 (ix), a
                            553 ;src/text/text.c:255: while (character != '\0')
   02F4 21 01 00      [10]  554 	ld	hl, #0x0001
   02F7 39            [11]  555 	add	hl, sp
   02F8 DD 75 F1      [19]  556 	ld	-15 (ix), l
   02FB DD 74 F2      [19]  557 	ld	-14 (ix), h
   02FE DD 7E F1      [19]  558 	ld	a, -15 (ix)
   0301 DD 77 E6      [19]  559 	ld	-26 (ix), a
   0304 DD 7E F2      [19]  560 	ld	a, -14 (ix)
   0307 DD 77 E7      [19]  561 	ld	-25 (ix), a
   030A DD 7E F1      [19]  562 	ld	a, -15 (ix)
   030D DD 77 E8      [19]  563 	ld	-24 (ix), a
   0310 DD 7E F2      [19]  564 	ld	a, -14 (ix)
   0313 DD 77 E9      [19]  565 	ld	-23 (ix), a
   0316 DD 7E F1      [19]  566 	ld	a, -15 (ix)
   0319 DD 77 E0      [19]  567 	ld	-32 (ix), a
   031C DD 7E F2      [19]  568 	ld	a, -14 (ix)
   031F DD 77 E1      [19]  569 	ld	-31 (ix), a
   0322 DD 7E F1      [19]  570 	ld	a, -15 (ix)
   0325 DD 77 E2      [19]  571 	ld	-30 (ix), a
   0328 DD 7E F2      [19]  572 	ld	a, -14 (ix)
   032B DD 77 E3      [19]  573 	ld	-29 (ix), a
   032E DD 7E F1      [19]  574 	ld	a, -15 (ix)
   0331 DD 77 E4      [19]  575 	ld	-28 (ix), a
   0334 DD 7E F2      [19]  576 	ld	a, -14 (ix)
   0337 DD 77 E5      [19]  577 	ld	-27 (ix), a
   033A DD 7E F1      [19]  578 	ld	a, -15 (ix)
   033D DD 77 EF      [19]  579 	ld	-17 (ix), a
   0340 DD 7E F2      [19]  580 	ld	a, -14 (ix)
   0343 DD 77 F0      [19]  581 	ld	-16 (ix), a
   0346 DD 7E F1      [19]  582 	ld	a, -15 (ix)
   0349 DD 77 DD      [19]  583 	ld	-35 (ix), a
   034C DD 7E F2      [19]  584 	ld	a, -14 (ix)
   034F DD 77 DE      [19]  585 	ld	-34 (ix), a
   0352 DD 7E F1      [19]  586 	ld	a, -15 (ix)
   0355 DD 77 F8      [19]  587 	ld	-8 (ix), a
   0358 DD 7E F2      [19]  588 	ld	a, -14 (ix)
   035B DD 77 F9      [19]  589 	ld	-7 (ix), a
   035E DD 7E F1      [19]  590 	ld	a, -15 (ix)
   0361 DD 77 EC      [19]  591 	ld	-20 (ix), a
   0364 DD 7E F2      [19]  592 	ld	a, -14 (ix)
   0367 DD 77 ED      [19]  593 	ld	-19 (ix), a
   036A DD 7E 09      [19]  594 	ld	a, 9 (ix)
   036D 3D            [ 4]  595 	dec	a
   036E 20 04         [12]  596 	jr	NZ,00297$
   0370 3E 01         [ 7]  597 	ld	a,#0x01
   0372 18 01         [12]  598 	jr	00298$
   0374                     599 00297$:
   0374 AF            [ 4]  600 	xor	a,a
   0375                     601 00298$:
   0375 DD 77 DF      [19]  602 	ld	-33 (ix), a
   0378 DD 7E 09      [19]  603 	ld	a, 9 (ix)
   037B 4F            [ 4]  604 	ld	c, a
   037C 87            [ 4]  605 	add	a, a
   037D 87            [ 4]  606 	add	a, a
   037E 87            [ 4]  607 	add	a, a
   037F 81            [ 4]  608 	add	a, c
   0380 DD 77 F5      [19]  609 	ld	-11 (ix), a
   0383 DD 7E F1      [19]  610 	ld	a, -15 (ix)
   0386 DD 77 FB      [19]  611 	ld	-5 (ix), a
   0389 DD 7E F2      [19]  612 	ld	a, -14 (ix)
   038C DD 77 FC      [19]  613 	ld	-4 (ix), a
   038F DD 36 D7 00   [19]  614 	ld	-41 (ix), #0x00
   0393                     615 00156$:
   0393 DD 7E EE      [19]  616 	ld	a, -18 (ix)
   0396 B7            [ 4]  617 	or	a, a
   0397 CAr70r06      [10]  618 	jp	Z, 00161$
                            619 ;src/text/text.c:259: if ((character == 33) || ((character > 43) && (character < 47)) ||
   039A DD 7E EE      [19]  620 	ld	a, -18 (ix)
   039D D6 21         [ 7]  621 	sub	a, #0x21
   039F 20 04         [12]  622 	jr	NZ,00299$
   03A1 3E 01         [ 7]  623 	ld	a,#0x01
   03A3 18 01         [12]  624 	jr	00300$
   03A5                     625 00299$:
   03A5 AF            [ 4]  626 	xor	a,a
   03A6                     627 00300$:
   03A6 4F            [ 4]  628 	ld	c,a
   03A7 B7            [ 4]  629 	or	a, a
   03A8 20 2C         [12]  630 	jr	NZ,00148$
   03AA 3E 2B         [ 7]  631 	ld	a, #0x2b
   03AC DD 96 EE      [19]  632 	sub	a, -18 (ix)
   03AF 30 07         [12]  633 	jr	NC,00153$
   03B1 DD 7E EE      [19]  634 	ld	a, -18 (ix)
   03B4 D6 2F         [ 7]  635 	sub	a, #0x2f
   03B6 38 1E         [12]  636 	jr	C,00148$
   03B8                     637 00153$:
                            638 ;src/text/text.c:260: ((character > 47) && (character < 58)) || ((character > 62) && (character < 91)))
   03B8 3E 2F         [ 7]  639 	ld	a, #0x2f
   03BA DD 96 EE      [19]  640 	sub	a, -18 (ix)
   03BD 30 07         [12]  641 	jr	NC,00155$
   03BF DD 7E EE      [19]  642 	ld	a, -18 (ix)
   03C2 D6 3A         [ 7]  643 	sub	a, #0x3a
   03C4 38 10         [12]  644 	jr	C,00148$
   03C6                     645 00155$:
   03C6 3E 3E         [ 7]  646 	ld	a, #0x3e
   03C8 DD 96 EE      [19]  647 	sub	a, -18 (ix)
   03CB D2r53r06      [10]  648 	jp	NC, 00149$
   03CE DD 7E EE      [19]  649 	ld	a, -18 (ix)
   03D1 D6 5B         [ 7]  650 	sub	a, #0x5b
   03D3 D2r53r06      [10]  651 	jp	NC, 00149$
   03D6                     652 00148$:
                            653 ;src/text/text.c:264: switch (character)
   03D6 79            [ 4]  654 	ld	a, c
   03D7 B7            [ 4]  655 	or	a, a
   03D8 20 5D         [12]  656 	jr	NZ,00101$
   03DA DD 7E EE      [19]  657 	ld	a, -18 (ix)
   03DD D6 2C         [ 7]  658 	sub	a, #0x2c
   03DF 28 5C         [12]  659 	jr	Z,00104$
   03E1 DD 7E EE      [19]  660 	ld	a, -18 (ix)
   03E4 D6 2D         [ 7]  661 	sub	a, #0x2d
   03E6 28 55         [12]  662 	jr	Z,00104$
   03E8 DD 7E EE      [19]  663 	ld	a, -18 (ix)
   03EB D6 2E         [ 7]  664 	sub	a, #0x2e
   03ED 28 4E         [12]  665 	jr	Z,00104$
   03EF DD 7E EE      [19]  666 	ld	a, -18 (ix)
   03F2 D6 30         [ 7]  667 	sub	a, #0x30
   03F4 28 51         [12]  668 	jr	Z,00114$
   03F6 DD 7E EE      [19]  669 	ld	a, -18 (ix)
   03F9 D6 31         [ 7]  670 	sub	a, #0x31
   03FB 28 4A         [12]  671 	jr	Z,00114$
   03FD DD 7E EE      [19]  672 	ld	a, -18 (ix)
   0400 D6 32         [ 7]  673 	sub	a, #0x32
   0402 28 43         [12]  674 	jr	Z,00114$
   0404 DD 7E EE      [19]  675 	ld	a, -18 (ix)
   0407 D6 33         [ 7]  676 	sub	a, #0x33
   0409 28 3C         [12]  677 	jr	Z,00114$
   040B DD 7E EE      [19]  678 	ld	a, -18 (ix)
   040E D6 34         [ 7]  679 	sub	a, #0x34
   0410 28 35         [12]  680 	jr	Z,00114$
   0412 DD 7E EE      [19]  681 	ld	a, -18 (ix)
   0415 D6 35         [ 7]  682 	sub	a, #0x35
   0417 28 2E         [12]  683 	jr	Z,00114$
   0419 DD 7E EE      [19]  684 	ld	a, -18 (ix)
   041C D6 36         [ 7]  685 	sub	a, #0x36
   041E 28 27         [12]  686 	jr	Z,00114$
   0420 DD 7E EE      [19]  687 	ld	a, -18 (ix)
   0423 D6 37         [ 7]  688 	sub	a, #0x37
   0425 28 20         [12]  689 	jr	Z,00114$
   0427 DD 7E EE      [19]  690 	ld	a, -18 (ix)
   042A D6 38         [ 7]  691 	sub	a, #0x38
   042C 28 19         [12]  692 	jr	Z,00114$
   042E DD 7E EE      [19]  693 	ld	a, -18 (ix)
   0431 D6 39         [ 7]  694 	sub	a, #0x39
   0433 28 12         [12]  695 	jr	Z,00114$
   0435 18 18         [12]  696 	jr	00115$
                            697 ;src/text/text.c:267: case 33:
   0437                     698 00101$:
                            699 ;src/text/text.c:268: character = 49;
   0437 DD 36 EE 31   [19]  700 	ld	-18 (ix), #0x31
                            701 ;src/text/text.c:269: break;
   043B 18 12         [12]  702 	jr	00115$
                            703 ;src/text/text.c:274: case 46:
   043D                     704 00104$:
                            705 ;src/text/text.c:275: character += 6;
   043D DD 7E EE      [19]  706 	ld	a, -18 (ix)
   0440 C6 06         [ 7]  707 	add	a, #0x06
   0442 DD 77 EE      [19]  708 	ld	-18 (ix), a
                            709 ;src/text/text.c:276: break;
   0445 18 08         [12]  710 	jr	00115$
                            711 ;src/text/text.c:288: case 57:
   0447                     712 00114$:
                            713 ;src/text/text.c:289: character += 5;
   0447 DD 7E EE      [19]  714 	ld	a, -18 (ix)
   044A C6 05         [ 7]  715 	add	a, #0x05
   044C DD 77 EE      [19]  716 	ld	-18 (ix), a
                            717 ;src/text/text.c:291: }
   044F                     718 00115$:
                            719 ;src/text/text.c:294: character -= 49;
   044F DD 7E EE      [19]  720 	ld	a, -18 (ix)
   0452 C6 CF         [ 7]  721 	add	a, #0xcf
   0454 4F            [ 4]  722 	ld	c, a
                            723 ;src/text/text.c:297: for (i = 0; i < 18; i++)
   0455 06 00         [ 7]  724 	ld	b,#0x00
   0457 69            [ 4]  725 	ld	l, c
   0458 60            [ 4]  726 	ld	h, b
   0459 29            [11]  727 	add	hl, hl
   045A 29            [11]  728 	add	hl, hl
   045B 29            [11]  729 	add	hl, hl
   045C 09            [11]  730 	add	hl, bc
   045D 29            [11]  731 	add	hl, hl
   045E EB            [ 4]  732 	ex	de,hl
   045F 06 00         [ 7]  733 	ld	b, #0x00
   0461                     734 00159$:
                            735 ;src/text/text.c:299: pChar = (u8 *)s_fonts_0 + (character * 18) + i;
   0461 21r00r00      [10]  736 	ld	hl, #_s_fonts_0
   0464 19            [11]  737 	add	hl, de
   0465 7D            [ 4]  738 	ld	a, l
   0466 80            [ 4]  739 	add	a, b
   0467 6F            [ 4]  740 	ld	l, a
   0468 7C            [ 4]  741 	ld	a, h
   0469 CE 00         [ 7]  742 	adc	a, #0x00
   046B 67            [ 4]  743 	ld	h, a
                            744 ;src/text/text.c:304: if (*pChar == 0x55)
   046C DD 75 D8      [19]  745 	ld	-40 (ix), l
   046F DD 74 D9      [19]  746 	ld	-39 (ix), h
   0472 7E            [ 7]  747 	ld	a, (hl)
   0473 DD 77 FA      [19]  748 	ld	-6 (ix), a
   0476 D6 55         [ 7]  749 	sub	a, #0x55
   0478 20 04         [12]  750 	jr	NZ,00314$
   047A 3E 01         [ 7]  751 	ld	a,#0x01
   047C 18 01         [12]  752 	jr	00315$
   047E                     753 00314$:
   047E AF            [ 4]  754 	xor	a,a
   047F                     755 00315$:
   047F DD 77 F4      [19]  756 	ld	-12 (ix), a
                            757 ;src/text/text.c:306: else if (*pChar == 0xee)
   0482 DD 7E FA      [19]  758 	ld	a, -6 (ix)
   0485 D6 EE         [ 7]  759 	sub	a, #0xee
   0487 20 04         [12]  760 	jr	NZ,00316$
   0489 3E 01         [ 7]  761 	ld	a,#0x01
   048B 18 01         [12]  762 	jr	00317$
   048D                     763 00316$:
   048D AF            [ 4]  764 	xor	a,a
   048E                     765 00317$:
   048E DD 77 F3      [19]  766 	ld	-13 (ix), a
                            767 ;src/text/text.c:308: else if (*pChar == 0xdd)
   0491 DD 7E FA      [19]  768 	ld	a, -6 (ix)
   0494 D6 DD         [ 7]  769 	sub	a, #0xdd
   0496 20 04         [12]  770 	jr	NZ,00318$
   0498 3E 01         [ 7]  771 	ld	a,#0x01
   049A 18 01         [12]  772 	jr	00319$
   049C                     773 00318$:
   049C AF            [ 4]  774 	xor	a,a
   049D                     775 00319$:
   049D DD 77 FF      [19]  776 	ld	-1 (ix), a
                            777 ;src/text/text.c:310: else if (*pChar == 0xff)
   04A0 DD 7E FA      [19]  778 	ld	a, -6 (ix)
   04A3 3C            [ 4]  779 	inc	a
   04A4 20 04         [12]  780 	jr	NZ,00320$
   04A6 3E 01         [ 7]  781 	ld	a,#0x01
   04A8 18 01         [12]  782 	jr	00321$
   04AA                     783 00320$:
   04AA AF            [ 4]  784 	xor	a,a
   04AB                     785 00321$:
   04AB DD 77 FE      [19]  786 	ld	-2 (ix), a
                            787 ;src/text/text.c:301: if (size == 1)
   04AE DD 7E DF      [19]  788 	ld	a, -33 (ix)
   04B1 B7            [ 4]  789 	or	a, a
   04B2 28 72         [12]  790 	jr	Z,00141$
                            791 ;src/text/text.c:304: if (*pChar == 0x55)
   04B4 DD 7E F4      [19]  792 	ld	a, -12 (ix)
   04B7 B7            [ 4]  793 	or	a, a
   04B8 28 12         [12]  794 	jr	Z,00126$
                            795 ;src/text/text.c:305: colorchar[i] = color1;
   04BA DD 7E EC      [19]  796 	ld	a, -20 (ix)
   04BD 80            [ 4]  797 	add	a, b
   04BE 6F            [ 4]  798 	ld	l, a
   04BF DD 7E ED      [19]  799 	ld	a, -19 (ix)
   04C2 CE 00         [ 7]  800 	adc	a, #0x00
   04C4 67            [ 4]  801 	ld	h, a
   04C5 DD 7E B2      [19]  802 	ld	a, -78 (ix)
   04C8 77            [ 7]  803 	ld	(hl), a
   04C9 C3r15r06      [10]  804 	jp	00160$
   04CC                     805 00126$:
                            806 ;src/text/text.c:306: else if (*pChar == 0xee)
   04CC DD 7E F3      [19]  807 	ld	a, -13 (ix)
   04CF B7            [ 4]  808 	or	a, a
   04D0 28 12         [12]  809 	jr	Z,00123$
                            810 ;src/text/text.c:307: colorchar[i] = color2;
   04D2 DD 7E F8      [19]  811 	ld	a, -8 (ix)
   04D5 80            [ 4]  812 	add	a, b
   04D6 6F            [ 4]  813 	ld	l, a
   04D7 DD 7E F9      [19]  814 	ld	a, -7 (ix)
   04DA CE 00         [ 7]  815 	adc	a, #0x00
   04DC 67            [ 4]  816 	ld	h, a
   04DD DD 7E DC      [19]  817 	ld	a, -36 (ix)
   04E0 77            [ 7]  818 	ld	(hl), a
   04E1 C3r15r06      [10]  819 	jp	00160$
   04E4                     820 00123$:
                            821 ;src/text/text.c:308: else if (*pChar == 0xdd)
   04E4 DD 7E FF      [19]  822 	ld	a, -1 (ix)
   04E7 B7            [ 4]  823 	or	a, a
   04E8 28 12         [12]  824 	jr	Z,00120$
                            825 ;src/text/text.c:309: colorchar[i] = color3;
   04EA DD 7E DD      [19]  826 	ld	a, -35 (ix)
   04ED 80            [ 4]  827 	add	a, b
   04EE 6F            [ 4]  828 	ld	l, a
   04EF DD 7E DE      [19]  829 	ld	a, -34 (ix)
   04F2 CE 00         [ 7]  830 	adc	a, #0x00
   04F4 67            [ 4]  831 	ld	h, a
   04F5 DD 7E DB      [19]  832 	ld	a, -37 (ix)
   04F8 77            [ 7]  833 	ld	(hl), a
   04F9 C3r15r06      [10]  834 	jp	00160$
   04FC                     835 00120$:
                            836 ;src/text/text.c:310: else if (*pChar == 0xff)
   04FC DD 7E FE      [19]  837 	ld	a, -2 (ix)
   04FF B7            [ 4]  838 	or	a, a
   0500 28 12         [12]  839 	jr	Z,00117$
                            840 ;src/text/text.c:311: colorchar[i] = color4;
   0502 DD 7E EF      [19]  841 	ld	a, -17 (ix)
   0505 80            [ 4]  842 	add	a, b
   0506 6F            [ 4]  843 	ld	l, a
   0507 DD 7E F0      [19]  844 	ld	a, -16 (ix)
   050A CE 00         [ 7]  845 	adc	a, #0x00
   050C 67            [ 4]  846 	ld	h, a
   050D DD 7E DA      [19]  847 	ld	a, -38 (ix)
   0510 77            [ 7]  848 	ld	(hl), a
   0511 C3r15r06      [10]  849 	jp	00160$
   0514                     850 00117$:
                            851 ;src/text/text.c:313: colorchar[i] = *pChar;
   0514 DD 7E E4      [19]  852 	ld	a, -28 (ix)
   0517 80            [ 4]  853 	add	a, b
   0518 6F            [ 4]  854 	ld	l, a
   0519 DD 7E E5      [19]  855 	ld	a, -27 (ix)
   051C CE 00         [ 7]  856 	adc	a, #0x00
   051E 67            [ 4]  857 	ld	h, a
   051F DD 7E FA      [19]  858 	ld	a, -6 (ix)
   0522 77            [ 7]  859 	ld	(hl), a
   0523 C3r15r06      [10]  860 	jp	00160$
   0526                     861 00141$:
                            862 ;src/text/text.c:319: pos = (i * size) - (i % FONT_0_W);
   0526 D5            [11]  863 	push	de
   0527 C5            [11]  864 	push	bc
   0528 DD 5E 09      [19]  865 	ld	e, 9 (ix)
   052B 60            [ 4]  866 	ld	h, b
   052C 2E 00         [ 7]  867 	ld	l, #0x00
   052E 55            [ 4]  868 	ld	d, l
   052F 06 08         [ 7]  869 	ld	b, #0x08
   0531                     870 00322$:
   0531 29            [11]  871 	add	hl, hl
   0532 30 01         [12]  872 	jr	NC,00323$
   0534 19            [11]  873 	add	hl, de
   0535                     874 00323$:
   0535 10 FA         [13]  875 	djnz	00322$
   0537 C1            [10]  876 	pop	bc
   0538 D1            [10]  877 	pop	de
   0539 78            [ 4]  878 	ld	a, b
   053A E6 01         [ 7]  879 	and	a, #0x01
   053C 67            [ 4]  880 	ld	h, a
   053D 7D            [ 4]  881 	ld	a, l
   053E 94            [ 4]  882 	sub	a, h
                            883 ;src/text/text.c:324: colorchar[pos + FONT_0_W] = color1;
   053F 6F            [ 4]  884 	ld	l,a
   0540 C6 02         [ 7]  885 	add	a, #0x02
   0542 DD 77 FD      [19]  886 	ld	-3 (ix), a
                            887 ;src/text/text.c:321: if (*pChar == 0x55)
   0545 DD 7E F4      [19]  888 	ld	a, -12 (ix)
   0548 B7            [ 4]  889 	or	a, a
   0549 28 23         [12]  890 	jr	Z,00138$
                            891 ;src/text/text.c:323: colorchar[pos] = color1;
   054B DD 7E E2      [19]  892 	ld	a, -30 (ix)
   054E 85            [ 4]  893 	add	a, l
   054F 6F            [ 4]  894 	ld	l, a
   0550 DD 7E E3      [19]  895 	ld	a, -29 (ix)
   0553 CE 00         [ 7]  896 	adc	a, #0x00
   0555 67            [ 4]  897 	ld	h, a
   0556 DD 7E B2      [19]  898 	ld	a, -78 (ix)
   0559 77            [ 7]  899 	ld	(hl), a
                            900 ;src/text/text.c:324: colorchar[pos + FONT_0_W] = color1;
   055A DD 7E E2      [19]  901 	ld	a, -30 (ix)
   055D DD 86 FD      [19]  902 	add	a, -3 (ix)
   0560 6F            [ 4]  903 	ld	l, a
   0561 DD 7E E3      [19]  904 	ld	a, -29 (ix)
   0564 CE 00         [ 7]  905 	adc	a, #0x00
   0566 67            [ 4]  906 	ld	h, a
   0567 DD 7E B2      [19]  907 	ld	a, -78 (ix)
   056A 77            [ 7]  908 	ld	(hl), a
   056B C3r15r06      [10]  909 	jp	00160$
   056E                     910 00138$:
                            911 ;src/text/text.c:326: else if (*pChar == 0xee)
   056E DD 7E F3      [19]  912 	ld	a, -13 (ix)
   0571 B7            [ 4]  913 	or	a, a
   0572 28 23         [12]  914 	jr	Z,00135$
                            915 ;src/text/text.c:328: colorchar[pos] = color2;
   0574 DD 7E E0      [19]  916 	ld	a, -32 (ix)
   0577 85            [ 4]  917 	add	a, l
   0578 6F            [ 4]  918 	ld	l, a
   0579 DD 7E E1      [19]  919 	ld	a, -31 (ix)
   057C CE 00         [ 7]  920 	adc	a, #0x00
   057E 67            [ 4]  921 	ld	h, a
   057F DD 7E DC      [19]  922 	ld	a, -36 (ix)
   0582 77            [ 7]  923 	ld	(hl), a
                            924 ;src/text/text.c:329: colorchar[pos + FONT_0_W] = color2;
   0583 DD 7E E0      [19]  925 	ld	a, -32 (ix)
   0586 DD 86 FD      [19]  926 	add	a, -3 (ix)
   0589 6F            [ 4]  927 	ld	l, a
   058A DD 7E E1      [19]  928 	ld	a, -31 (ix)
   058D CE 00         [ 7]  929 	adc	a, #0x00
   058F 67            [ 4]  930 	ld	h, a
   0590 DD 7E DC      [19]  931 	ld	a, -36 (ix)
   0593 77            [ 7]  932 	ld	(hl), a
   0594 C3r15r06      [10]  933 	jp	00160$
   0597                     934 00135$:
                            935 ;src/text/text.c:331: else if (*pChar == 0xdd)
   0597 DD 7E FF      [19]  936 	ld	a, -1 (ix)
   059A B7            [ 4]  937 	or	a, a
   059B 28 22         [12]  938 	jr	Z,00132$
                            939 ;src/text/text.c:333: colorchar[pos] = color3;
   059D DD 7E E8      [19]  940 	ld	a, -24 (ix)
   05A0 85            [ 4]  941 	add	a, l
   05A1 6F            [ 4]  942 	ld	l, a
   05A2 DD 7E E9      [19]  943 	ld	a, -23 (ix)
   05A5 CE 00         [ 7]  944 	adc	a, #0x00
   05A7 67            [ 4]  945 	ld	h, a
   05A8 DD 7E DB      [19]  946 	ld	a, -37 (ix)
   05AB 77            [ 7]  947 	ld	(hl), a
                            948 ;src/text/text.c:334: colorchar[pos + FONT_0_W] = color3;
   05AC DD 7E E8      [19]  949 	ld	a, -24 (ix)
   05AF DD 86 FD      [19]  950 	add	a, -3 (ix)
   05B2 6F            [ 4]  951 	ld	l, a
   05B3 DD 7E E9      [19]  952 	ld	a, -23 (ix)
   05B6 CE 00         [ 7]  953 	adc	a, #0x00
   05B8 67            [ 4]  954 	ld	h, a
   05B9 DD 7E DB      [19]  955 	ld	a, -37 (ix)
   05BC 77            [ 7]  956 	ld	(hl), a
   05BD 18 56         [12]  957 	jr	00160$
   05BF                     958 00132$:
                            959 ;src/text/text.c:336: else if (*pChar == 0xff)
   05BF DD 7E FE      [19]  960 	ld	a, -2 (ix)
   05C2 B7            [ 4]  961 	or	a, a
   05C3 28 22         [12]  962 	jr	Z,00129$
                            963 ;src/text/text.c:338: colorchar[pos] = color4;
   05C5 DD 7E E6      [19]  964 	ld	a, -26 (ix)
   05C8 85            [ 4]  965 	add	a, l
   05C9 6F            [ 4]  966 	ld	l, a
   05CA DD 7E E7      [19]  967 	ld	a, -25 (ix)
   05CD CE 00         [ 7]  968 	adc	a, #0x00
   05CF 67            [ 4]  969 	ld	h, a
   05D0 DD 7E DA      [19]  970 	ld	a, -38 (ix)
   05D3 77            [ 7]  971 	ld	(hl), a
                            972 ;src/text/text.c:339: colorchar[pos + FONT_0_W] = color4;
   05D4 DD 7E E6      [19]  973 	ld	a, -26 (ix)
   05D7 DD 86 FD      [19]  974 	add	a, -3 (ix)
   05DA 6F            [ 4]  975 	ld	l, a
   05DB DD 7E E7      [19]  976 	ld	a, -25 (ix)
   05DE CE 00         [ 7]  977 	adc	a, #0x00
   05E0 67            [ 4]  978 	ld	h, a
   05E1 DD 7E DA      [19]  979 	ld	a, -38 (ix)
   05E4 77            [ 7]  980 	ld	(hl), a
   05E5 18 2E         [12]  981 	jr	00160$
   05E7                     982 00129$:
                            983 ;src/text/text.c:343: colorchar[pos] = *pChar;
   05E7 DD 7E F1      [19]  984 	ld	a, -15 (ix)
   05EA 85            [ 4]  985 	add	a, l
   05EB 6F            [ 4]  986 	ld	l, a
   05EC DD 7E F2      [19]  987 	ld	a, -14 (ix)
   05EF CE 00         [ 7]  988 	adc	a, #0x00
   05F1 67            [ 4]  989 	ld	h, a
   05F2 DD 7E FA      [19]  990 	ld	a, -6 (ix)
   05F5 77            [ 7]  991 	ld	(hl), a
                            992 ;src/text/text.c:344: colorchar[pos + FONT_0_W] = *pChar;
   05F6 DD 7E F1      [19]  993 	ld	a, -15 (ix)
   05F9 DD 86 FD      [19]  994 	add	a, -3 (ix)
   05FC DD 77 F6      [19]  995 	ld	-10 (ix), a
   05FF DD 7E F2      [19]  996 	ld	a, -14 (ix)
   0602 CE 00         [ 7]  997 	adc	a, #0x00
   0604 DD 77 F7      [19]  998 	ld	-9 (ix), a
   0607 DD 6E D8      [19]  999 	ld	l,-40 (ix)
   060A DD 66 D9      [19] 1000 	ld	h,-39 (ix)
   060D 7E            [ 7] 1001 	ld	a, (hl)
   060E DD 6E F6      [19] 1002 	ld	l,-10 (ix)
   0611 DD 66 F7      [19] 1003 	ld	h,-9 (ix)
   0614 77            [ 7] 1004 	ld	(hl), a
   0615                    1005 00160$:
                           1006 ;src/text/text.c:297: for (i = 0; i < 18; i++)
   0615 04            [ 4] 1007 	inc	b
   0616 78            [ 4] 1008 	ld	a, b
   0617 D6 12         [ 7] 1009 	sub	a, #0x12
   0619 DAr61r04      [10] 1010 	jp	C, 00159$
                           1011 ;src/text/text.c:349: pvideo = cpct_getScreenPtr((u8*)VM_START, xPos, yPos);
   061C C5            [11] 1012 	push	bc
   061D DD 66 07      [19] 1013 	ld	h, 7 (ix)
   0620 DD 6E 06      [19] 1014 	ld	l, 6 (ix)
   0623 E5            [11] 1015 	push	hl
   0624 21 00 80      [10] 1016 	ld	hl, #0x8000
   0627 E5            [11] 1017 	push	hl
   0628 CDr00r00      [17] 1018 	call	_cpct_getScreenPtr
   062B C1            [10] 1019 	pop	bc
                           1020 ;src/text/text.c:353: cpct_drawSprite(colorchar, pvideo, FONT_0_W, FONT_H * size);
   062C E5            [11] 1021 	push	hl
   062D FD E1         [14] 1022 	pop	iy
   062F DD 5E FB      [19] 1023 	ld	e,-5 (ix)
   0632 DD 56 FC      [19] 1024 	ld	d,-4 (ix)
   0635 C5            [11] 1025 	push	bc
   0636 DD 46 F5      [19] 1026 	ld	b, -11 (ix)
   0639 0E 02         [ 7] 1027 	ld	c,#0x02
   063B C5            [11] 1028 	push	bc
   063C FD E5         [15] 1029 	push	iy
   063E D5            [11] 1030 	push	de
   063F CDr00r00      [17] 1031 	call	_cpct_drawSprite
   0642 C1            [10] 1032 	pop	bc
                           1033 ;src/text/text.c:356: if (character == 48 || character == 60 || character == 57)
   0643 79            [ 4] 1034 	ld	a,c
   0644 FE 30         [ 7] 1035 	cp	a,#0x30
   0646 28 08         [12] 1036 	jr	Z,00144$
   0648 FE 3C         [ 7] 1037 	cp	a,#0x3c
   064A 28 04         [12] 1038 	jr	Z,00144$
   064C D6 39         [ 7] 1039 	sub	a, #0x39
   064E 20 03         [12] 1040 	jr	NZ,00149$
   0650                    1041 00144$:
                           1042 ;src/text/text.c:357: xPos--;
   0650 DD 35 06      [23] 1043 	dec	6 (ix)
   0653                    1044 00149$:
                           1045 ;src/text/text.c:359: character = text[++x];
   0653 DD 34 D7      [23] 1046 	inc	-41 (ix)
   0656 DD 7E EA      [19] 1047 	ld	a, -22 (ix)
   0659 DD 86 D7      [19] 1048 	add	a, -41 (ix)
   065C 6F            [ 4] 1049 	ld	l, a
   065D DD 7E EB      [19] 1050 	ld	a, -21 (ix)
   0660 CE 00         [ 7] 1051 	adc	a, #0x00
   0662 67            [ 4] 1052 	ld	h, a
   0663 7E            [ 7] 1053 	ld	a, (hl)
   0664 DD 77 EE      [19] 1054 	ld	-18 (ix), a
                           1055 ;src/text/text.c:360: xPos += FONT_0_W;
   0667 DD 34 06      [23] 1056 	inc	6 (ix)
   066A DD 34 06      [23] 1057 	inc	6 (ix)
   066D C3r93r03      [10] 1058 	jp	00156$
   0670                    1059 00161$:
   0670 DD F9         [10] 1060 	ld	sp, ix
   0672 DD E1         [14] 1061 	pop	ix
   0674 C9            [10] 1062 	ret
                           1063 	.area _CODE
                           1064 	.area _INITIALIZER
                           1065 	.area _CABS (ABS)
