ASxxxx Linker V03.00 + NoICE + sdld,  page 1.
Hexadecimal  [32-Bits]

Area                                    Addr        Size        Decimal Bytes (Attributes)
--------------------------------        ----        ----        ------- ----- ------------
.  .ABS.                            00000000    00000000 =           0. bytes (ABS,CON)

      Value  Global                              Global Defined In Module
      -----  --------------------------------   ------------------------
     00000000  .__.ABS.                           
     00000000  l__CABS                         
     00000000  l__DABS                         
     00000000  l__GSFINAL                      
     00000000  l__HOME                         
     00000000  l__INITIALIZED                  
     00000000  l__INITIALIZER                  
     00000000  s__CABS                         
     00000000  s__DABS                         
     00000008  l__GSINIT                       
     00000040  s__CODE                         
     00000047  l__DATA                         
     000020C7  l__CODE                         
     00002107  s__DATA                         
     0000214E  s__GSINIT                       
     0000214E  s__HOME                         
     0000214E  s__INITIALIZED                  
     00002156  s__GSFINAL                      
     00002156  s__INITIALIZER                  

ASxxxx Linker V03.00 + NoICE + sdld,  page 2.
Hexadecimal  [32-Bits]

Area                                    Addr        Size        Decimal Bytes (Attributes)
--------------------------------        ----        ----        ------- ----- ------------
_CODE                               00000040    000020C7 =        8391. bytes (REL,CON)

      Value  Global                              Global Defined In Module
      -----  --------------------------------   ------------------------
     00000040  _s_fonts_1                         font_chars_1
     000001C3  _g_palette1                        g_palette1
     000001C7  _s_fonts_0                         font_chars_0
     000004BB  _s_cards_0                         cards
     00000603  _s_cards_1                         cards
     0000074B  _g_palette0                        g_palette0
     0000075B  _myInterruptHandler                main
     000007F7  _card_sprite                       main
     000007FB  _card_description                  main
     0000085F  _initCPC                           main
     00000898  _check_keyboard                    main
     000008DF  _draw_cards                        main
     00000A80  _update_selected_card              main
     00000AFA  _init_cards                        main
     00000B2F  _main                              main
     00000B95  _strLength                         text
     00000BAB  _swapColors                        text
     00000BC3  _strCopy                           text
     00000BEC  _strCmp                            text
     00000C2F  _drawTextM1                        text
     00000E41  _drawText                          text
     00001210  _cpct_setPalette                   cpct_video
     00001227  _cpct_isKeyPressed                 cpct_keyboard
     00001227  cpct_isKeyPressed_asm              cpct_keyboard
     00001233  _cpct_setPALColour                 cpct_video
     0000123F  _cpct_drawSprite                   cpct_sprites
     000012E4  __moduchar                         
     000012F0  __moduint                          
     000012FB  _cpct_keyboardStatusBuffer         cpct_keyboard
     00001305  _cpct_waitHalts                    cpct_memutils
     0000130A  __divuint                          
     00001312  __divuchar                         
     00001319  __divu8                            
     0000131C  __divu16                           
     0000134B  _cpct_memset_f64                   cpct_memutils
     000013B6  _vsprintf                          sprintf
     000013EB  _sprintf                           sprintf
     00001420  _cpct_waitVSYNC                    cpct_video
     00001420  cpct_waitVSYNC_asm                 cpct_video
     00001428  _cpct_setVideoMode                 cpct_video
     00001436  _cpct_disableFirmware              cpct_firmware
     00001436  _cpct_removeInterruptHandler       cpct_firmware
     00001436  cpct_disableFirmware_asm           cpct_firmware
     00001436  cpct_removeInterruptHandler_asm    cpct_firmware
     00001446  _cpct_getRandom_mxor_u8            cpct_random
     00001446  cpct_getRandom_mxor_u8_asm         cpct_random
     00001447  cpct_randomIdx_mxor_u8             cpct_random
     0000146B  _cpct_drawSolidBox                 cpct_sprites
     00001515  _cpct_mode_rom_status              cpct_firmware
     00001516  _cpct_getScreenPtr                 cpct_video
ASxxxx Linker V03.00 + NoICE + sdld,  page 3.
Hexadecimal  [32-Bits]

Area                                    Addr        Size        Decimal Bytes (Attributes)
--------------------------------        ----        ----        ------- ----- ------------
_CODE                               00000040    000020C7 =        8391. bytes (REL,CON)

      Value  Global                              Global Defined In Module
      -----  --------------------------------   ------------------------
     00001536  _cpct_scanKeyboard                 cpct_keyboard
     00001536  cpct_scanKeyboard_asm              cpct_keyboard
     00001567  _cpct_setInterruptHandler          cpct_firmware
     00001567  cpct_setInterruptHandler_asm       cpct_firmware
     00001578  cpct_safeInterruptHandlerHook      cpct_firmware
     0000158F  _cpct_mxor32_seed                  cpct_random
     00001692  __print_format                     printf_large
     000020D4  _cpct_nextRandom_mxor_u32          cpct_random
     000020D4  cpct_nextRandom_mxor_u32_asm       cpct_random
     000020F7  ___sdcc_call_hl                    
     000020F8  _strlen                            

ASxxxx Linker V03.00 + NoICE + sdld,  page 4.
Hexadecimal  [32-Bits]

Area                                    Addr        Size        Decimal Bytes (Attributes)
--------------------------------        ----        ----        ------- ----- ------------
_DATA                               00002107    00000047 =          71. bytes (REL,CON)

      Value  Global                              Global Defined In Module
      -----  --------------------------------   ------------------------
     00002107  _i_time                            main
     0000210B  _pvmem                             main
     0000210D  _aux_txt                           main
     0000213F  _selected_card                     main
     00002140  _previous_card                     main
     00002141  _cards                             main
     0000214B  _num_cards                         main
     0000214C  _moved                             main

ASxxxx Linker V03.00 + NoICE + sdld,  page 5.
Hexadecimal  [32-Bits]

Area                                    Addr        Size        Decimal Bytes (Attributes)
--------------------------------        ----        ----        ------- ----- ------------
_GSINIT                             0000214E    00000008 =           8. bytes (REL,CON)

      Value  Global                              Global Defined In Module
      -----  --------------------------------   ------------------------
ASxxxx Linker V03.00 + NoICE + sdld,  page 6.

Files Linked                              [ module(s) ]

obj/sprites/font_chars_1.rel              [ font_chars_1 ]
obj/sprites/g_palette1.rel                [ g_palette1 ]
obj/sprites/font_chars_0.rel              [ font_chars_0 ]
obj/sprites/cards.rel                     [ cards ]
obj/sprites/g_palette0.rel                [ g_palette0 ]
obj/main.rel                              [ main ]
obj/text/text.rel                         [ text ]


Libraries Linked                          [ object file ]

/mnt/c/sources/retro/cpctelera/cpctelera/cpctelera.lib
                                          [ cpct_setPalette_cbindings.rel ]
/mnt/c/sources/retro/cpctelera/cpctelera/cpctelera.lib
                                          [ cpct_isKeyPressed.rel ]
/mnt/c/sources/retro/cpctelera/cpctelera/cpctelera.lib
                                          [ cpct_setPALColour_cbindings.rel ]
/mnt/c/sources/retro/cpctelera/cpctelera/cpctelera.lib
                                          [ cpct_drawSprite_cbindings.rel ]
/mnt/c/sources/retro/cpctelera/cpctelera/tools/sdcc-3.6.8-r9946/bin/../share/sdcc/lib/z80/z80.lib
                                          [ modunsigned.rel ]
/mnt/c/sources/retro/cpctelera/cpctelera/cpctelera.lib
                                          [ keyboard.rel ]
/mnt/c/sources/retro/cpctelera/cpctelera/cpctelera.lib
                                          [ cpct_waitHalts_cbindings.rel ]
/mnt/c/sources/retro/cpctelera/cpctelera/tools/sdcc-3.6.8-r9946/bin/../share/sdcc/lib/z80/z80.lib
                                          [ divunsigned.rel ]
/mnt/c/sources/retro/cpctelera/cpctelera/cpctelera.lib
                                          [ cpct_memset_f64_cbinding.rel ]
/mnt/c/sources/retro/cpctelera/cpctelera/tools/sdcc-3.6.8-r9946/bin/../share/sdcc/lib/z80/z80.lib
                                          [ sprintf.rel ]
/mnt/c/sources/retro/cpctelera/cpctelera/cpctelera.lib
                                          [ cpct_waitVSYNC.rel ]
/mnt/c/sources/retro/cpctelera/cpctelera/cpctelera.lib
                                          [ cpct_setVideoMode_cbindings.rel ]
/mnt/c/sources/retro/cpctelera/cpctelera/cpctelera.lib
                                          [ cpct_removeInterruptHandler.rel ]
/mnt/c/sources/retro/cpctelera/cpctelera/cpctelera.lib
                                          [ cpct_getRandom_mxor_u8.rel ]
/mnt/c/sources/retro/cpctelera/cpctelera/cpctelera.lib
                                          [ cpct_drawSolidBox_cbindings.rel ]
/mnt/c/sources/retro/cpctelera/cpctelera/cpctelera.lib
                                          [ cpc_mode_rom_status.rel ]
/mnt/c/sources/retro/cpctelera/cpctelera/cpctelera.lib
                                          [ cpct_getScreenPtr_cbindings.rel ]
/mnt/c/sources/retro/cpctelera/cpctelera/cpctelera.lib
                                          [ cpct_scanKeyboard.rel ]
/mnt/c/sources/retro/cpctelera/cpctelera/cpctelera.lib
                                          [ cpct_setInterruptHandler.rel ]
/mnt/c/sources/retro/cpctelera/cpctelera/cpctelera.lib
                                          [ cpct_mxor32_seed.rel ]
/mnt/c/sources/retro/cpctelera/cpctelera/tools/sdcc-3.6.8-r9946/bin/../share/sdcc/lib/z80/z80.lib
                                          [ printf_large.rel ]
/mnt/c/sources/retro/cpctelera/cpctelera/cpctelera.lib
                                          [ cpct_nextRandom_mxor_u32.rel ]
/mnt/c/sources/retro/cpctelera/cpctelera/tools/sdcc-3.6.8-r9946/bin/../share/sdcc/lib/z80/z80.lib
                                          [ __sdcc_call_hl.rel ]
/mnt/c/sources/retro/cpctelera/cpctelera/tools/sdcc-3.6.8-r9946/bin/../share/sdcc/lib/z80/z80.lib
                                          [ strlen.rel ]

ASxxxx Linker V03.00 + NoICE + sdld,  page 7.

User Base Address Definitions

_CODE = 0x0040
_DATA = 0x0000

